target datalayout = "e-m:e-p270:32:32-p271:32:32-p272:64:64-i64:64-i128:128-f80:128-n8:16:32:64-S128"
target triple = "x86_64-pc-linux-gnu"

; Function Attrs: nounwind sspstrong uwtable
define internal void @tcg_gen_nonatomic_cmpxchg_i32_int(ptr noundef %0, ptr noundef %1, ptr noundef %2, ptr noundef %3, i64 noundef %4, i32 noundef %5) #0 {
  %7 = alloca ptr, align 8
  %8 = alloca ptr, align 8
  %9 = alloca ptr, align 8
  %10 = alloca ptr, align 8
  %11 = alloca i64, align 8
  %12 = alloca i32, align 4
  %13 = alloca ptr, align 8
  %14 = alloca ptr, align 8
  store ptr %0, ptr %7, align 8
  store ptr %1, ptr %8, align 8
  store ptr %2, ptr %9, align 8
  store ptr %3, ptr %10, align 8
  store i64 %4, ptr %11, align 8
  store i32 %5, ptr %12, align 4
  call void @llvm.lifetime.start.p0(i64 8, ptr %13) #7
  %15 = call ptr @tcg_temp_ebb_new_i32()
  store ptr %15, ptr %13, align 8
  call void @llvm.lifetime.start.p0(i64 8, ptr %14) #7
  %16 = call ptr @tcg_temp_ebb_new_i32()
  store ptr %16, ptr %14, align 8
  %17 = load ptr, ptr %14, align 8
  %18 = load ptr, ptr %9, align 8
  %19 = load i32, ptr %12, align 4
  %20 = and i32 %19, 7
  call void @tcg_gen_ext_i32(ptr noundef %17, ptr noundef %18, i32 noundef %20)
  %21 = load ptr, ptr %13, align 8
  %22 = load ptr, ptr %8, align 8
  %23 = load i64, ptr %11, align 8
  %24 = load i32, ptr %12, align 4
  %25 = and i32 %24, -9
  call void @tcg_gen_qemu_ld_i32_int(ptr noundef %21, ptr noundef %22, i64 noundef %23, i32 noundef %25)
  %26 = load ptr, ptr %14, align 8
  %27 = load ptr, ptr %13, align 8
  %28 = load ptr, ptr %14, align 8
  %29 = load ptr, ptr %10, align 8
  %30 = load ptr, ptr %13, align 8
  call void @tcg_gen_movcond_i32(i32 noundef 8, ptr noundef %26, ptr noundef %27, ptr noundef %28, ptr noundef %29, ptr noundef %30)
  %31 = load ptr, ptr %14, align 8
  %32 = load ptr, ptr %8, align 8
  %33 = load i64, ptr %11, align 8
  %34 = load i32, ptr %12, align 4
  call void @tcg_gen_qemu_st_i32_int(ptr noundef %31, ptr noundef %32, i64 noundef %33, i32 noundef %34)
  %35 = load ptr, ptr %14, align 8
  call void @tcg_temp_free_i32(ptr noundef %35)
  %36 = load i32, ptr %12, align 4
  %37 = and i32 %36, 8
  %38 = icmp ne i32 %37, 0
  br i1 %38, label %39, label %43

39:                                               ; preds = %6
  %40 = load ptr, ptr %7, align 8
  %41 = load ptr, ptr %13, align 8
  %42 = load i32, ptr %12, align 4
  call void @tcg_gen_ext_i32(ptr noundef %40, ptr noundef %41, i32 noundef %42)
  br label %46

43:                                               ; preds = %6
  %44 = load ptr, ptr %7, align 8
  %45 = load ptr, ptr %13, align 8
  call void @tcg_gen_mov_i32(ptr noundef %44, ptr noundef %45)
  br label %46

46:                                               ; preds = %43, %39
  %47 = load ptr, ptr %13, align 8
  call void @tcg_temp_free_i32(ptr noundef %47)
  call void @llvm.lifetime.end.p0(i64 8, ptr %14) #7
  call void @llvm.lifetime.end.p0(i64 8, ptr %13) #7
  ret void
}