; Function Attrs: nounwind sspstrong uwtable
define internal fastcc void @tcg_gen_nonatomic_cmpxchg_i32_int(ptr noundef %0, ptr noundef %1, ptr noundef %2, ptr noundef %3, i64 noundef %4, i32 noundef %5) unnamed_addr #0 {
  %7 = tail call ptr @tcg_temp_ebb_new_i32() #6
  %8 = tail call ptr @tcg_temp_ebb_new_i32() #6
  %9 = and i32 %5, 7
  tail call void @tcg_gen_ext_i32(ptr noundef %8, ptr noundef %2, i32 noundef %9)
  %10 = and i32 %5, -9
  tail call fastcc void @tcg_gen_qemu_ld_i32_int(ptr noundef %7, ptr noundef %1, i64 noundef %4, i32 noundef %10)
  tail call void @tcg_gen_movcond_i32(i32 noundef 8, ptr noundef %8, ptr noundef %7, ptr noundef %8, ptr noundef %3, ptr noundef %7) #6
  tail call fastcc void @tcg_gen_qemu_st_i32_int(ptr noundef %8, ptr noundef %1, i64 noundef %4, i32 noundef %5)
  tail call void @tcg_temp_free_i32(ptr noundef %8) #6
  %11 = and i32 %5, 8
  %.not = icmp eq i32 %11, 0
  br i1 %.not, label %13, label %12

12:                                               ; preds = %6
  tail call void @tcg_gen_ext_i32(ptr noundef %0, ptr noundef %7, i32 noundef %5)
  br label %14

13:                                               ; preds = %6
  tail call void @tcg_gen_mov_i32(ptr noundef %0, ptr noundef %7) #6
  br label %14

14:                                               ; preds = %13, %12
  tail call void @tcg_temp_free_i32(ptr noundef %7) #6
  ret void
}